Turbo Assembler	 Version 4.1	    02/10/25 23:29:50	    Page 1
border.asm



      1				     ;------------------------------------------------------------------------------
      2				     ;			      Card for Saint Valentine's Day (aka frame)
      3				     ;			     @Rogov Anatoliy 08.02.2025	"Sivchuk Bad Day"
      4				     ;------------------------------------------------------------------------------
      5
      6	      =B800		     video_segment	     = 0b800h								    +
      7				     ;video segment
      8	      =0050		     window_len			     = 80							    +
      9				     ;window row length
     10	      =0019		     window_height	     = 25								    +
     11				     ;window column height
     12	      =000A		     frame_color	     = 00001010b							    +
     13				     ;color of frame element
     14	      =008A		     string_color	     = 10001010b							    +
     15				     ;color of frame inside string
     16
     17	      =001E		     len			     = 30							    +
     18				     ;frame row	length
     19	      =0009		     height			     = 9							    +
     20				     ;frame column height
     21
     22	      =0019		     x_start			     = (window_len - len) / 2				     ;x	    +
     23				     frame start position
     24	      =0008		     y_start			     = (window_height -	height)	/ 2		     ;y	frame start +
     25				     position
     26	      =000C		     y_string			     = (height / 2 + y_start)				     ;y	    +
     27				     string start position
     28
     29	0000			     .model tiny										    +
     30				     ;set 64 Kb	model
     31	0000			     .code											    +
     32				     ;define code block
     33				     org 100h											    +
     34				     ;prog's begging ram block
     35
     36	0100  BB B800		     Start:  mov bx, video_segment							     ;bx =  +
     37				     video segment position
     38	0103  8E C3				     mov es, bx									    +
     39				     ;es = bx
     40
     41	0105  BE 0183r				     mov si, offset DoubleFrameString					     ;si =  +
     42				     &FrameStyleString
     43	0108  B6 09				     mov dh, height								    +
     44				     ;dh = frame height
     45	010A  B2 1E				     mov dl, len								    +
     46				     ;dl = frame length
     47	010C  33 FF				     xor di, di									    +
     48				     ;di = 0
     49	010E  E8 0038				     call DrawFrame
     50
     51	0111  BE 018Cr				     mov si, offset InsideString						    +
     52				     ;si = &inside frame string
     53	0114  33 C9				     xor cx, cx									    +
     54				     ;cx = 0
     55	0116  E8 001C				     call StrLen
     56
     57	0119  BE 018Cr				     mov si, offset InsideString						    +
Turbo Assembler	 Version 4.1	    02/10/25 23:29:50	    Page 2
border.asm



     58				     ;si = &inside frame string
     59	011C  E8 000A				     call EvalShift
     60
     61	011F  B4 8A				     mov ah, string_color							    +
     62				     ;ah = string color
     63	0121  E8 001C				     call PrintInsideString
     64
     65	0124  B8 4C00				     mov ax, 4c00h								    +
     66				     ;ax = cmd(4c)
     67	0127  CD 21				     int 21h									    +
     68				     ;call scm
     69
     70				     ;------------------------------------------------------------------------------
     71				     ; Eval shift of frame inside string
     72				     ; Entry:		     CX	= string length
     73				     ; Exit:		     None
     74				     ; Destroyed:    DI, BX
     75				     ;------------------------------------------------------------------------------
     76
     77	0129			     EvalShift	     proc
     78
     79	0129  BF 07D0					     mov di, y_string *	window_len * 2 + (x_start + len	/ 2) * 2
     80	012C  8B D9					     mov bx, cx								    +
     81				     ;bx = cx
     82	012E  D1 EB					     shr bx, 1								    +
     83				     ;bx /= 2
     84	0130  2B FB					     sub di, bx								    +
     85				     ;di -= bx
     86	0132  2B FB					     sub di, bx								    +
     87				     ;di -= bx
     88
     89	0134  C3					     ret								    +
     90				     ;return function value
     91	0135						     endp								    +
     92				     ;proc's ending
     93
     94				     ;------------------------------------------------------------------------------
     95
     96
     97				     ;------------------------------------------------------------------------------
     98				     ; Eval string length with '$' terminal symbol
     99				     ; Entry:		     SI	= data string address
    100				     ; Exit:		     None
    101				     ; Destroyed:    BX, AL, CX
    102				     ;------------------------------------------------------------------------------
    103
    104	0135			     StrLen  proc
    105
    106	0135					     str_len:									    +
    107				     ;<------------------------------|
    108	0135  AC					     lodsb								    +
    109				     ;mov al, ds:[si]				     |
    110	0136  3C 24					     cmp al, '$'							    +
    111				     ;if (al ==	'$') zf	= 1		     |
    112	0138  74 05					     jz	end_str_len							    +
    113				     ;if (zf ==	1) goto	end_str_len  |
    114	013A  83 C1 02					     add cx, 2								    +
Turbo Assembler	 Version 4.1	    02/10/25 23:29:50	    Page 3
border.asm



    115				     ;cx += 2						     |
    116	013D  E2 F6				     loop str_len								    +
    117				     ;-------------------------------|
    118	013F					     end_str_len:								    +
    119				     ;label of str len ending
    120
    121	013F  C3				     ret									    +
    122				     ;return function value
    123	0140					     endp									    +
    124				     ;proc's ending
    125
    126				     ;------------------------------------------------------------------------------
    127
    128				     ;------------------------------------------------------------------------------
    129				     ; Print string inside the frame
    130				     ; Entry:		     BX	= data string address
    131				     ;				     AH	= string color
    132				     ;				     CX	= string length
    133				     ; Exit:		     None
    134				     ; Destroyed:    BX, AL, DI
    135				     ;------------------------------------------------------------------------------
    136
    137	0140			     PrintInsideString	     proc
    138
    139	0140								     print_string:					    +
    140				     ;<----------------------------------|
    141	0140  AC								     lodsb					    +
    142				     ;mov al, ds:[si]					     |
    143	0141  AB								     stosw					    +
    144				     ;mov es:[di], ax /	add di,	2	     |
    145	0142  3C 24								     cmp al, '$'				    +
    146				     ;if (al ==	'$') zf	= 1			     |
    147	0144  74 02								     jz	end_print_string			    +
    148				     ;if (zf ==	1) goto	end_print_string     |
    149	0146  E2 F8							     loop print_string					    +
    150				     ;-----------------------------------|
    151	0148								     end_print_string:					    +
    152				     ;label of print string ending
    153
    154	0148  C3							     ret						    +
    155				     ;return function value
    156	0149								     endp						    +
    157				     ;proc's ending
    158
    159				     ;------------------------------------------------------------------------------
    160
    161				     ;------------------------------------------------------------------------------
    162				     ; Draw frame with size: len, height
    163				     ; Entry:		     SI	= data string address
    164				     ;				     DH	= frame	height
    165				     ;				     DL	= frame	len
    166				     ; Exit:		     None
    167				     ; Destroyed:    BX, CX, DI
    168				     ;------------------------------------------------------------------------------
    169
    170	0149			     DrawFrame	     proc
    171
Turbo Assembler	 Version 4.1	    02/10/25 23:29:50	    Page 4
border.asm



    172	0149  81 C7 0532				     add di, y_start * window_len * 2 +	x_start	* 2  ;frame top	line shifting
    173	014D  E8 001A					     call PrintString							    +
    174				     ;print string
    175
    176	0150  B9 0007					     mov cx, height - 2							    +
    177				     ;count of center frame line
    178	0153						     cycle1:								    +
    179				     ;<--------------------------|
    180	0153  81 C7 00A0					     add di, window_len	* 2					    +
    181				     ;di += window_len * 2	     |
    182	0157  E8 0010						     call PrintString						    +
    183				     ;print string			     |
    184	015A  83 EE 03						     sub si, 3							    +
    185				     ;si -= 3					     |
    186	015D  E2 F4					     loop cycle1							    +
    187				     ;---------------------------|
    188	015F  83 C6 03					     add si, 3								    +
    189				     ;si += 3
    190
    191	0162  81 C7 00A0				     add di, window_len	* 2						    +
    192				     ;di += window_len * 2 (next line)
    193	0166  E8 0001					     call PrintString							    +
    194				     ;print string
    195
    196	0169  C3					     ret								    +
    197				     ;return function value
    198	016A						     endp								    +
    199				     ;proc's ending
    200
    201				     ;------------------------------------------------------------------------------
    202
    203				     ;------------------------------------------------------------------------------
    204				     ; Draws string to console in format: s1s2....s2s3
    205				     ; Entry:		     BX	= string address
    206				     ;				     DL	= string len
    207				     ; Exit:		     None
    208				     ; Destroyed:    AX, BX, CX, SI
    209				     ;------------------------------------------------------------------------------
    210
    211	016A			     PrintString     proc
    212
    213	016A  B4 0A					     mov ah, frame_color						    +
    214				     ;set symbols color
    215
    216	016C  AC					     lodsb								    +
    217				     ;mov al, ds:[si]
    218	016D  AB					     stosw								    +
    219				     ;mov es:[di], ax /	add di,	2
    220
    221	016E  8B D9					     mov bx, cx								    +
    222				     ;save prev	loop cnt
    223	0170  8A CA					     mov cl, dl								    +
    224				     ;counter =	dl
    225	0172  80 E9 02					     sub cl, 2								    +
    226				     ;without top and bottom line
    227	0175						     cycle:								    +
    228				     ;<------------------------------|
Turbo Assembler	 Version 4.1	    02/10/25 23:29:50	    Page 5
border.asm



    229	0175  8A 04						     mov al, [si]						    +
    230				     ;al = [si]						     |
    231	0177  AB						     stosw							    +
    232				     ;mov es:[di], ax /	add di,	2    |
    233	0178  E2 FB					     loop cycle								    +
    234				     ;-------------------------------|
    235	017A  46					     inc si								    +
    236				     ;bx++
    237	017B  8B CB					     mov cx, bx								    +
    238				     ;return prev loop cnt
    239
    240	017D  AC					     lodsb								    +
    241				     ;mov al, ds:[si]
    242	017E  AB					     stosw								    +
    243				     ;mov es:[di], ax /	add di,	2
    244
    245	017F  83 EF 3C					     sub di, len * 2							    +
    246				     ;set di to	line beginning
    247
    248	0182  C3					     ret								    +
    249				     ;return function value
    250	0183						     endp								    +
    251				     ;proc's ending
    252
    253				     ;------------------------------------------------------------------------------
    254
    255	0183  C9 CD BB BA 20 BA	C8+  DoubleFrameString	     db	'ÉÍ»º ºÈÍ¼'
    256	      CD BC
    257	018C  49 20 77 61 6E 6E	61+  InsideString	     db	'I wanna sleep!$'
    258	      20 73 6C 65 65 70	21+
    259	      24
    260
    261				     end     Start										    +
    262				     ;prog's ending
Turbo Assembler	 Version 4.1	    02/10/25 23:29:50	    Page 6
Symbol Table




Symbol Name			  Type	 Value

??DATE				  Text	 "02/10/25"
??FILENAME			  Text	 "border  "
??TIME				  Text	 "23:29:50"
??VERSION			  Number 040A
@32BIT				  Text	 0
@CODE				  Text	 DGROUP
@CODESIZE			  Text	 0
@CPU				  Text	 0101H
@CURSEG				  Text	 _TEXT
@DATA				  Text	 DGROUP
@DATASIZE			  Text	 0
@FILENAME			  Text	 BORDER
@INTERFACE			  Text	 000H
@MODEL				  Text	 1
@STACK				  Text	 DGROUP
@WORDSIZE			  Text	 2
CYCLE				  Near	 DGROUP:0175
CYCLE1				  Near	 DGROUP:0153
DOUBLEFRAMESTRING		  Byte	 DGROUP:0183
DRAWFRAME			  Near	 DGROUP:0149
END_PRINT_STRING		  Near	 DGROUP:0148
END_STR_LEN			  Near	 DGROUP:013F
EVALSHIFT			  Near	 DGROUP:0129
FRAME_COLOR			  Number 000A
HEIGHT				  Number 0009
INSIDESTRING			  Byte	 DGROUP:018C
LEN				  Number 001E
PRINTINSIDESTRING		  Near	 DGROUP:0140
PRINTSTRING			  Near	 DGROUP:016A
PRINT_STRING			  Near	 DGROUP:0140
START				  Near	 DGROUP:0100
STRING_COLOR			  Number 008A
STRLEN				  Near	 DGROUP:0135
STR_LEN				  Near	 DGROUP:0135
VIDEO_SEGMENT			  Number B800
WINDOW_HEIGHT			  Number 0019
WINDOW_LEN			  Number 0050
X_START				  Number 0019
Y_START				  Number 0008
Y_STRING			  Number 000C

Groups & Segments		  Bit Size Align  Combine Class

DGROUP				  Group
  _DATA				  16  0000 Word	  Public  DATA
  _TEXT				  16  019B Word	  Public  CODE
